; Function Attrs: mustprogress uwtable
define void @_ZN19QualityMapperDialog24on_xSpinBox_valueChangedEd(ptr noundef nonnull align 8 dereferenceable(824) %0, double noundef %1) local_unnamed_addr #9 align 2 {
  %3 = alloca %class.QPointF, align 8
  %4 = getelementptr inbounds i8, ptr %0, i64 752
  %5 = load ptr, ptr %4, align 8
  %.not = icmp eq ptr %5, null
  br i1 %.not, label %48, label %6

6:                                                ; preds = %2
  %7 = getelementptr inbounds i8, ptr %5, i64 16
  %8 = getelementptr inbounds i8, ptr %0, i64 696
  %9 = fptrunc double %1 to float
  %10 = load ptr, ptr %8, align 8
  %11 = load ptr, ptr %10, align 8
  %12 = getelementptr inbounds i8, ptr %11, i64 40
  %13 = load ptr, ptr %12, align 8
  %14 = getelementptr inbounds i8, ptr %13, i64 20
  %15 = getelementptr inbounds i8, ptr %13, i64 28
  %16 = load i32, ptr %15, align 4
  %17 = load i32, ptr %14, align 4
  %18 = add i32 %16, 1
  %19 = sub i32 %18, %17
  %20 = sitofp i32 %19 to float
  %21 = fadd float %20, -1.000000e+01
  %22 = fadd float %21, -1.000000e+01
  %23 = tail call noundef float @_Z21relative2AbsoluteValfff(float noundef %9, float noundef %22)
  %24 = fadd float %23, 1.000000e+01
  %25 = fpext float %24 to double
  %26 = load ptr, ptr %4, align 8
  %27 = getelementptr inbounds i8, ptr %26, i64 16
  %28 = tail call { double, double } @_ZNK13QGraphicsItem8scenePosEv(ptr noundef nonnull align 8 dereferenceable(16) %27)
  %29 = extractvalue { double, double } %28, 1
  call void @llvm.lifetime.start.p0(i64 16, ptr nonnull %3)
  store double %25, ptr %3, align 8
  %30 = getelementptr inbounds i8, ptr %3, i64 8
  store double %29, ptr %30, align 8
  call void @_ZN13QGraphicsItem6setPosERK7QPointF(ptr noundef nonnull align 8 dereferenceable(16) %7, ptr noundef nonnull align 8 dereferenceable(16) %3)
  call void @llvm.lifetime.end.p0(i64 16, ptr nonnull %3)
  %31 = load ptr, ptr %4, align 8
  %32 = getelementptr inbounds i8, ptr %31, i64 16
  %33 = call { double, double } @_ZNK13QGraphicsItem8scenePosEv(ptr noundef nonnull align 8 dereferenceable(16) %32)
  %34 = extractvalue { double, double } %33, 0
  %35 = extractvalue { double, double } %33, 1
  call void @_ZN8TFHandle20updateTfHandlesStateE7QPointF(ptr noundef nonnull align 8 dereferenceable(81) %31, double %34, double %35)
  %36 = load ptr, ptr %4, align 8
  call void @_ZN19QualityMapperDialog21manageBorderTfHandlesEP8TFHandle(ptr noundef nonnull align 8 dereferenceable(824) %0, ptr noundef %36)
  %37 = load ptr, ptr %4, align 8
  %38 = getelementptr inbounds i8, ptr %37, i64 64
  %39 = load i32, ptr %38, align 8
  call void @_ZN19QualityMapperDialog20updateTfHandlesOrderEi(ptr noundef nonnull align 8 dereferenceable(824) %0, i32 noundef %39)
  %40 = load ptr, ptr %4, align 8
  %41 = getelementptr inbounds i8, ptr %40, i64 72
  %42 = load ptr, ptr %41, align 8
  %43 = load float, ptr %42, align 4
  call void @_ZN19QualityMapperDialog19updateXQualityLabelEf(ptr noundef nonnull align 8 dereferenceable(824) %0, float noundef %43)
  call void @_ZN19QualityMapperDialog20drawTransferFunctionEv(ptr noundef nonnull align 8 dereferenceable(824) %0)
  %44 = getelementptr inbounds i8, ptr %0, i64 568
  %45 = load ptr, ptr %44, align 8
  %46 = call noundef zeroext i1 @_ZNK15QAbstractButton9isCheckedEv(ptr noundef nonnull align 8 dereferenceable(48) %45)
  br i1 %46, label %47, label %48

47:                                               ; preds = %6
  call void @_ZN19QualityMapperDialog22on_applyButton_clickedEv(ptr noundef nonnull align 8 dereferenceable(824) %0)
  br label %48

48:                                               ; preds = %6, %47, %2
  ret void
}